; Function Attrs: nounwind uwtable
define internal noundef i32 @fold_kfold_intarith(ptr noundef captures(none) initializes((184, 188)) %0) #0 {
  %2 = getelementptr inbounds nuw i8, ptr %0, i64 192
  %3 = load i32, ptr %2, align 8, !tbaa !28
  %4 = getelementptr inbounds nuw i8, ptr %0, i64 208
  %5 = load i32, ptr %4, align 8, !tbaa !28
  %6 = getelementptr inbounds nuw i8, ptr %0, i64 189
  %7 = load i8, ptr %6, align 1, !tbaa !28
  switch i8 %7, label %kfold_intop.exit [
    i8 41, label %8
    i8 42, label %10
    i8 43, label %12
    i8 45, label %14
    i8 47, label %16
    i8 33, label %18
    i8 34, label %20
    i8 35, label %22
    i8 36, label %24
    i8 37, label %27
    i8 38, label %30
    i8 39, label %33
    i8 40, label %35
    i8 50, label %37
    i8 51, label %39
  ]

8:                                                ; preds = %1
  %9 = add nsw i32 %5, %3
  br label %kfold_intop.exit

10:                                               ; preds = %1
  %11 = sub nsw i32 %3, %5
  br label %kfold_intop.exit

12:                                               ; preds = %1
  %13 = mul nsw i32 %5, %3
  br label %kfold_intop.exit

14:                                               ; preds = %1
  %15 = tail call i32 @lj_vm_modi(i32 noundef %3, i32 noundef %5) #12
  br label %kfold_intop.exit

16:                                               ; preds = %1
  %17 = sub i32 0, %3
  br label %kfold_intop.exit

18:                                               ; preds = %1
  %19 = and i32 %5, %3
  br label %kfold_intop.exit

20:                                               ; preds = %1
  %21 = or i32 %5, %3
  br label %kfold_intop.exit

22:                                               ; preds = %1
  %23 = xor i32 %5, %3
  br label %kfold_intop.exit

24:                                               ; preds = %1
  %25 = and i32 %5, 31
  %26 = shl i32 %3, %25
  br label %kfold_intop.exit

27:                                               ; preds = %1
  %28 = and i32 %5, 31
  %29 = lshr i32 %3, %28
  br label %kfold_intop.exit

30:                                               ; preds = %1
  %31 = and i32 %5, 31
  %32 = ashr i32 %3, %31
  br label %kfold_intop.exit

33:                                               ; preds = %1
  %34 = tail call i32 @llvm.fshl.i32(i32 %3, i32 %3, i32 %5)
  br label %kfold_intop.exit

35:                                               ; preds = %1
  %36 = tail call i32 @llvm.fshr.i32(i32 %3, i32 %3, i32 %5)
  br label %kfold_intop.exit

37:                                               ; preds = %1
  %38 = tail call i32 @llvm.smin.i32(i32 %3, i32 %5)
  br label %kfold_intop.exit

39:                                               ; preds = %1
  %40 = tail call i32 @llvm.smax.i32(i32 %3, i32 %5)
  br label %kfold_intop.exit

kfold_intop.exit:                                 ; preds = %1, %8, %10, %12, %14, %16, %18, %20, %22, %24, %27, %30, %33, %35, %37, %39
  %.0.i = phi i32 [ %3, %1 ], [ %40, %39 ], [ %38, %37 ], [ %36, %35 ], [ %34, %33 ], [ %32, %30 ], [ %29, %27 ], [ %26, %24 ], [ %23, %22 ], [ %21, %20 ], [ %19, %18 ], [ %17, %16 ], [ %15, %14 ], [ %13, %12 ], [ %11, %10 ], [ %9, %8 ]
  %41 = getelementptr inbounds nuw i8, ptr %0, i64 184
  store i32 %.0.i, ptr %41, align 8, !tbaa !28
  ret i32 2
}